target datalayout = "e-m:e-p270:32:32-p271:32:32-p272:64:64-i64:64-i128:128-f80:128-n8:16:32:64-S128"
target triple = "x86_64-pc-linux-gnu"

%struct.H5VL_loc_params_t = type { i32, i32, %union.anon.7 }
%union.anon.7 = type { %struct.H5VL_loc_by_idx }
%struct.H5VL_loc_by_idx = type { ptr, i32, i32, i64, i64 }
%struct.H5VL_loc_by_token = type { ptr }

@.str.2 = private unnamed_addr constant [101 x i8] c"generated/home/dtcxzyw/WorkSpace/Projects/compilers/llvm-opt-benchmark/bench/hdf5/hdf5/src/H5VLint.c\00", align 1
@H5E_BADTYPE_g = external global i64, align 8
@H5E_ARGS_g = external global i64, align 8
@.str.70 = private unnamed_addr constant [28 x i8] c"invalid location identifier\00", align 1
@__func__.H5VL_setup_token_args = private unnamed_addr constant [22 x i8] c"H5VL_setup_token_args\00", align 1

; Function Attrs: nounwind uwtable
define i32 @H5VL_setup_token_args(i64 noundef %0, ptr noundef %1, ptr noundef %2, ptr noundef %3) #0 {
  %5 = alloca i64, align 8
  %6 = alloca ptr, align 8
  %7 = alloca ptr, align 8
  %8 = alloca ptr, align 8
  %9 = alloca i32, align 4
  %10 = alloca i8, align 1
  store i64 %0, ptr %5, align 8
  store ptr %1, ptr %6, align 8
  store ptr %2, ptr %7, align 8
  store ptr %3, ptr %8, align 8
  store i32 0, ptr %9, align 4
  store i8 0, ptr %10, align 1
  %11 = load i64, ptr %5, align 8
  %12 = call ptr @H5VL_vol_object(i64 noundef %11)
  %13 = load ptr, ptr %7, align 8
  store ptr %12, ptr %13, align 8
  %14 = icmp eq ptr null, %12
  br i1 %14, label %15, label %30

15:                                               ; preds = %4
  br label %16

16:                                               ; preds = %15
  br label %17

17:                                               ; preds = %16
  br label %18

18:                                               ; preds = %17
  %19 = load i64, ptr @H5E_ARGS_g, align 8
  %20 = load i64, ptr @H5E_BADTYPE_g, align 8
  %21 = call i32 (ptr, ptr, i32, i64, i64, ptr, ...) @H5E_printf_stack(ptr noundef @.str.2, ptr noundef @__func__.H5VL_setup_token_args, i32 noundef 2764, i64 noundef %19, i64 noundef %20, ptr noundef @.str.70)
  br label %22

22:                                               ; preds = %18
  store i8 1, ptr %10, align 1
  %23 = load i8, ptr %10, align 1
  %24 = trunc i8 %23 to i1
  %25 = zext i1 %24 to i8
  store i8 %25, ptr %10, align 1
  br label %26

26:                                               ; preds = %22
  br label %27

27:                                               ; preds = %26
  store i32 -1, ptr %9, align 4
  br label %41

28:                                               ; No predecessors!
  br label %29

29:                                               ; preds = %28
  br label %30

30:                                               ; preds = %29, %4
  %31 = load ptr, ptr %8, align 8
  %32 = getelementptr inbounds %struct.H5VL_loc_params_t, ptr %31, i32 0, i32 1
  store i32 3, ptr %32, align 4
  %33 = load ptr, ptr %6, align 8
  %34 = load ptr, ptr %8, align 8
  %35 = getelementptr inbounds %struct.H5VL_loc_params_t, ptr %34, i32 0, i32 2
  %36 = getelementptr inbounds %struct.H5VL_loc_by_token, ptr %35, i32 0, i32 0
  store ptr %33, ptr %36, align 8
  %37 = load i64, ptr %5, align 8
  %38 = call i32 @H5I_get_type(i64 noundef %37)
  %39 = load ptr, ptr %8, align 8
  %40 = getelementptr inbounds %struct.H5VL_loc_params_t, ptr %39, i32 0, i32 0
  store i32 %38, ptr %40, align 8
  br label %41

41:                                               ; preds = %30, %27
  %42 = load i32, ptr %9, align 4
  ret i32 %42
}