; Function Attrs: nounwind uwtable
define range(i32 -1, 1) i32 @H5VL_setup_token_args(i64 noundef %0, ptr noundef %1, ptr nocapture noundef writeonly %2, ptr nocapture noundef writeonly %3) local_unnamed_addr #0 {
  %5 = tail call ptr @H5VL_vol_object(i64 noundef %0)
  store ptr %5, ptr %2, align 8
  %6 = icmp eq ptr %5, null
  br i1 %6, label %7, label %11

7:                                                ; preds = %4
  %8 = load i64, ptr @H5E_ARGS_g, align 8
  %9 = load i64, ptr @H5E_BADTYPE_g, align 8
  %10 = tail call i32 (ptr, ptr, i32, i64, i64, ptr, ...) @H5E_printf_stack(ptr noundef nonnull @.str.2, ptr noundef nonnull @__func__.H5VL_setup_token_args, i32 noundef 2764, i64 noundef %8, i64 noundef %9, ptr noundef nonnull @.str.70) #10
  br label %15

11:                                               ; preds = %4
  %12 = getelementptr inbounds i8, ptr %3, i64 4
  store i32 3, ptr %12, align 4
  %13 = getelementptr inbounds i8, ptr %3, i64 8
  store ptr %1, ptr %13, align 8
  %14 = tail call i32 @H5I_get_type(i64 noundef %0) #10
  store i32 %14, ptr %3, align 8
  br label %15

15:                                               ; preds = %11, %7
  %.0 = phi i32 [ -1, %7 ], [ 0, %11 ]
  ret i32 %.0
}